Certificate:
    Data:
        Version: 3 (0x2)
        Serial Number: 2 (0x2)
    Signature Algorithm: sha256WithRSAEncryption
        Issuer: O=Test Org, CN=Test Org rauc CA Development
        Validity
            Not Before: Jan  1 00:00:00 1970 GMT
            Not After : Dec 31 23:59:59 9999 GMT
        Subject: O=Test Org, CN=Test Org Development-1
        Subject Public Key Info:
            Public Key Algorithm: rsaEncryption
                Public-Key: (2048 bit)
                Modulus:
                    00:be:ba:c8:33:15:24:7d:62:17:4c:57:0f:a9:15:
                    13:48:7c:22:b5:98:dc:83:ec:80:bf:99:43:67:b4:
                    90:fe:a4:b0:fd:39:93:32:01:f7:ad:f9:78:1e:5f:
                    6f:70:5a:a3:1d:6d:79:2b:49:4a:05:8f:d8:2a:e3:
                    98:34:a5:cb:5f:47:17:aa:40:58:e1:10:de:69:60:
                    d2:aa:e2:74:8b:ea:52:7a:2f:3d:f1:00:d9:98:93:
                    c7:8f:f3:35:7a:76:57:21:dc:24:84:17:53:27:2d:
                    b1:cf:17:56:8e:f6:4b:dc:fe:cf:39:ed:a1:66:a7:
                    03:5a:28:d6:37:bb:1c:c6:56:22:52:c0:fa:23:f0:
                    92:8b:5a:db:9c:8e:74:86:c3:31:68:92:79:56:c0:
                    7a:4f:51:af:e0:7b:a5:65:da:84:4f:1e:86:84:2d:
                    28:31:85:ff:2f:93:87:ea:01:40:a0:a6:74:e3:18:
                    79:8c:e8:53:a7:cb:80:85:b0:c6:1a:53:3c:5d:8c:
                    08:81:5d:03:c0:05:a5:30:6a:5d:fb:59:5b:df:a2:
                    eb:68:ad:17:e9:f2:3a:da:e6:41:65:1e:11:b5:5d:
                    7a:7e:ee:70:d2:56:be:81:79:03:38:0f:db:d3:31:
                    c9:b2:cc:68:37:d9:2d:39:e1:53:aa:e3:25:52:9d:
                    c1:2b
                Exponent: 65537 (0x10001)
        X509v3 extensions:
            X509v3 Subject Key Identifier: 
                4E:35:CC:30:94:9F:9B:28:84:5C:E7:73:E1:6B:BA:78:7C:E6:EE:6E
            X509v3 Authority Key Identifier: 
                keyid:66:03:26:C0:47:42:DD:8E:DB:AA:F2:DD:E0:D1:B6:67:EF:51:A9:B6
                DirName:/O=Test Org/CN=Test Org rauc CA Development
                serial:01

            X509v3 Basic Constraints: 
                CA:FALSE
    Signature Algorithm: sha256WithRSAEncryption
         b4:b6:1f:c8:1a:14:9f:25:35:31:4d:26:58:95:94:e3:a2:b3:
         c4:e5:2e:0f:6c:a2:23:62:e4:bd:89:44:45:7d:5f:6c:01:a0:
         34:e0:51:ec:9f:6e:2e:b0:a5:1c:5d:c7:6b:e6:99:e6:a7:5d:
         0e:c7:cc:8f:12:ac:c7:87:a0:f7:d3:e4:cf:c8:87:a8:55:59:
         2c:9a:6f:8b:c9:b0:28:b8:96:22:5e:9e:76:16:ee:e9:e2:18:
         34:95:74:5c:78:39:2e:cd:ee:7b:61:4b:4c:78:11:e9:1b:e3:
         62:86:c8:5f:9a:e1:80:7f:a8:32:f7:41:1f:17:0f:73:72:bd:
         57:92:44:06:7b:f2:59:f9:8a:ae:e2:c2:61:ad:56:27:e8:a0:
         03:fc:65:20:2e:34:31:3b:c4:56:03:35:13:b0:ca:04:1a:17:
         18:f7:23:4e:93:8a:e7:48:22:fd:41:f0:57:95:24:90:f7:be:
         3a:30:7f:a4:03:01:b8:39:3c:ad:a6:8d:bb:1f:53:bf:de:81:
         30:17:9d:46:be:ec:2c:20:1f:3a:e4:ac:9f:05:a0:44:86:80:
         35:e8:2c:ee:14:63:0e:47:50:bf:23:78:d2:17:d7:a8:2a:e0:
         6c:31:1e:14:75:fd:e3:68:e7:55:b1:e0:ce:7b:d0:3c:da:ed:
         d5:4e:40:fa
-----BEGIN CERTIFICATE-----
MIIDfzCCAmegAwIBAgIBAjANBgkqhkiG9w0BAQsFADA6MREwDwYDVQQKDAhUZXN0
IE9yZzElMCMGA1UEAwwcVGVzdCBPcmcgcmF1YyBDQSBEZXZlbG9wbWVudDAiGA8x
OTcwMDEwMTAwMDAwMFoYDzk5OTkxMjMxMjM1OTU5WjA0MREwDwYDVQQKDAhUZXN0
IE9yZzEfMB0GA1UEAwwWVGVzdCBPcmcgRGV2ZWxvcG1lbnQtMTCCASIwDQYJKoZI
hvcNAQEBBQADggEPADCCAQoCggEBAL66yDMVJH1iF0xXD6kVE0h8IrWY3IPsgL+Z
Q2e0kP6ksP05kzIB9635eB5fb3Baox1teStJSgWP2CrjmDSly19HF6pAWOEQ3mlg
0qridIvqUnovPfEA2ZiTx4/zNXp2VyHcJIQXUyctsc8XVo72S9z+zzntoWanA1oo
1je7HMZWIlLA+iPwkota25yOdIbDMWiSeVbAek9Rr+B7pWXahE8ehoQtKDGF/y+T
h+oBQKCmdOMYeYzoU6fLgIWwxhpTPF2MCIFdA8AFpTBqXftZW9+i62itF+nyOtrm
QWUeEbVden7ucNJWvoF5AzgP29MxybLMaDfZLTnhU6rjJVKdwSsCAwEAAaOBkTCB
jjAdBgNVHQ4EFgQUTjXMMJSfmyiEXOdz4Wu6eHzm7m4wYgYDVR0jBFswWYAUZgMm
wEdC3Y7bqvLd4NG2Z+9RqbahPqQ8MDoxETAPBgNVBAoMCFRlc3QgT3JnMSUwIwYD
VQQDDBxUZXN0IE9yZyByYXVjIENBIERldmVsb3BtZW50ggEBMAkGA1UdEwQCMAAw
DQYJKoZIhvcNAQELBQADggEBALS2H8gaFJ8lNTFNJliVlOOis8TlLg9soiNi5L2J
REV9X2wBoDTgUeyfbi6wpRxdx2vmmeanXQ7HzI8SrMeHoPfT5M/Ih6hVWSyab4vJ
sCi4liJennYW7uniGDSVdFx4OS7N7nthS0x4Eekb42KGyF+a4YB/qDL3QR8XD3Ny
vVeSRAZ78ln5iq7iwmGtVifooAP8ZSAuNDE7xFYDNROwygQaFxj3I06TiudIIv1B
8FeVJJD3vjowf6QDAbg5PK2mjbsfU7/egTAXnUa+7CwgHzrkrJ8FoESGgDXoLO4U
Yw5HUL8jeNIX16gq4GwxHhR1/eNo51Wx4M570Dza7dVOQPo=
-----END CERTIFICATE-----
