Certificate:
    Data:
        Version: 3 (0x2)
        Serial Number: 1 (0x1)
    Signature Algorithm: sha256WithRSAEncryption
        Issuer: O=Test Org, CN=Test Org rauc CA Development
        Validity
            Not Before: Jan  1 00:00:00 1970 GMT
            Not After : Dec 31 23:59:59 9999 GMT
        Subject: O=Test Org, CN=Test Org rauc CA Development
        Subject Public Key Info:
            Public Key Algorithm: rsaEncryption
                Public-Key: (2048 bit)
                Modulus:
                    00:cd:1a:b8:12:ee:d3:7f:36:bb:6c:f2:9b:d8:24:
                    07:3c:e0:85:9e:a5:47:52:6e:a1:54:12:7b:31:e1:
                    4a:65:64:7e:25:e4:a5:07:0f:91:34:07:45:3a:9e:
                    f0:96:eb:fb:ad:f8:80:60:eb:fe:35:a9:ca:45:ce:
                    a7:0b:ee:30:f9:31:65:af:17:52:15:0d:40:ee:92:
                    2a:28:b7:88:70:83:70:e2:5b:15:90:26:cb:88:79:
                    d0:43:07:21:9f:4a:16:19:3e:39:24:8a:65:fd:09:
                    14:1b:f4:c5:62:03:fa:d2:4e:99:25:51:a5:14:56:
                    42:ae:79:78:4f:23:e2:17:51:a5:f4:12:da:f6:74:
                    c2:bb:53:77:b5:50:d7:31:db:04:42:20:4b:71:af:
                    0e:66:d7:51:a5:58:d8:20:e6:bc:81:73:14:33:76:
                    01:da:19:39:db:4f:c5:60:fc:5e:bb:f3:1d:e0:34:
                    d2:9b:68:dd:37:2e:db:2d:8f:c1:14:d2:8f:d3:a0:
                    96:ea:7d:d2:e9:70:69:cc:98:4b:50:73:4f:a7:ad:
                    96:f2:a4:bf:1e:52:69:b0:d6:4b:0c:29:1a:22:4d:
                    c1:db:2e:77:c7:92:6c:fe:5c:63:8a:f1:1a:66:f3:
                    5f:28:ef:49:12:93:52:2d:05:57:2f:3b:12:50:5f:
                    13:59
                Exponent: 65537 (0x10001)
        X509v3 extensions:
            X509v3 Subject Key Identifier: 
                66:03:26:C0:47:42:DD:8E:DB:AA:F2:DD:E0:D1:B6:67:EF:51:A9:B6
            X509v3 Authority Key Identifier: 
                keyid:66:03:26:C0:47:42:DD:8E:DB:AA:F2:DD:E0:D1:B6:67:EF:51:A9:B6
                DirName:/O=Test Org/CN=Test Org rauc CA Development
                serial:01

            X509v3 Basic Constraints: 
                CA:TRUE
    Signature Algorithm: sha256WithRSAEncryption
         69:fd:3f:61:41:ed:73:4e:2c:41:85:d0:d4:17:65:a2:f3:f8:
         84:c9:d4:42:88:a9:fe:a9:a6:d0:c5:5f:c3:d2:1a:f8:3d:4d:
         4d:e3:f1:bf:1e:33:a5:0c:33:c3:cb:4d:f9:ad:2b:c8:2b:ad:
         7e:4c:23:12:e0:13:bd:26:55:86:6e:f5:c5:8a:52:86:86:4f:
         b9:86:d0:f0:b2:b8:ae:70:c7:76:2e:40:42:60:05:62:b4:7b:
         10:d2:cb:14:e6:26:f6:ed:5a:89:ae:c0:34:56:bc:4b:86:ca:
         96:7c:f0:0d:2d:7a:88:25:da:91:f3:61:55:f7:ef:88:88:eb:
         ca:d0:23:c7:b7:92:97:ed:4b:a1:31:ca:d8:0f:aa:b4:cd:7e:
         de:4c:1e:c8:da:c9:59:07:99:f5:cb:c7:a8:d7:50:db:4c:a0:
         99:c6:21:3a:7a:e1:21:35:4c:ef:04:94:53:5d:2e:d0:71:d8:
         e2:de:5e:7e:9a:6f:e5:ad:e2:5d:a4:05:19:c7:44:2a:b6:81:
         ab:85:1d:c9:e4:49:c7:c0:6c:7b:e4:33:1c:22:50:fb:71:8d:
         73:2a:c1:dc:09:ac:81:d8:20:c4:b6:20:82:15:d9:80:00:33:
         c8:86:a7:12:5e:b4:e0:a8:1a:79:52:12:13:04:5d:07:8c:7a:
         b5:11:7c:b5
-----BEGIN CERTIFICATE-----
MIIDiDCCAnCgAwIBAgIBATANBgkqhkiG9w0BAQsFADA6MREwDwYDVQQKDAhUZXN0
IE9yZzElMCMGA1UEAwwcVGVzdCBPcmcgcmF1YyBDQSBEZXZlbG9wbWVudDAiGA8x
OTcwMDEwMTAwMDAwMFoYDzk5OTkxMjMxMjM1OTU5WjA6MREwDwYDVQQKDAhUZXN0
IE9yZzElMCMGA1UEAwwcVGVzdCBPcmcgcmF1YyBDQSBEZXZlbG9wbWVudDCCASIw
DQYJKoZIhvcNAQEBBQADggEPADCCAQoCggEBAM0auBLu0382u2zym9gkBzzghZ6l
R1JuoVQSezHhSmVkfiXkpQcPkTQHRTqe8Jbr+634gGDr/jWpykXOpwvuMPkxZa8X
UhUNQO6SKii3iHCDcOJbFZAmy4h50EMHIZ9KFhk+OSSKZf0JFBv0xWID+tJOmSVR
pRRWQq55eE8j4hdRpfQS2vZ0wrtTd7VQ1zHbBEIgS3GvDmbXUaVY2CDmvIFzFDN2
AdoZOdtPxWD8XrvzHeA00pto3Tcu2y2PwRTSj9Oglup90ulwacyYS1BzT6etlvKk
vx5SabDWSwwpGiJNwdsud8eSbP5cY4rxGmbzXyjvSRKTUi0FVy87ElBfE1kCAwEA
AaOBlDCBkTAdBgNVHQ4EFgQUZgMmwEdC3Y7bqvLd4NG2Z+9RqbYwYgYDVR0jBFsw
WYAUZgMmwEdC3Y7bqvLd4NG2Z+9RqbahPqQ8MDoxETAPBgNVBAoMCFRlc3QgT3Jn
MSUwIwYDVQQDDBxUZXN0IE9yZyByYXVjIENBIERldmVsb3BtZW50ggEBMAwGA1Ud
EwQFMAMBAf8wDQYJKoZIhvcNAQELBQADggEBAGn9P2FB7XNOLEGF0NQXZaLz+ITJ
1EKIqf6pptDFX8PSGvg9TU3j8b8eM6UMM8PLTfmtK8grrX5MIxLgE70mVYZu9cWK
UoaGT7mG0PCyuK5wx3YuQEJgBWK0exDSyxTmJvbtWomuwDRWvEuGypZ88A0teogl
2pHzYVX374iI68rQI8e3kpftS6ExytgPqrTNft5MHsjayVkHmfXLx6jXUNtMoJnG
ITp64SE1TO8ElFNdLtBx2OLeXn6ab+Wt4l2kBRnHRCq2gauFHcnkScfAbHvkMxwi
UPtxjXMqwdwJrIHYIMS2IIIV2YAAM8iGpxJetOCoGnlSEhMEXQeMerURfLU=
-----END CERTIFICATE-----
